target datalayout = "e-m:e-p270:32:32-p271:32:32-p272:64:64-i64:64-i128:128-f80:128-n8:16:32:64-S128"
target triple = "x86_64-pc-linux-gnu"

%struct.strbuf = type { i64, i64, ptr }

@ident_config_given = internal global i32 0, align 4
@git_default_name = internal global %struct.strbuf { i64 0, i64 0, ptr @strbuf_slopbuf }, align 8
@git_default_email = internal global %struct.strbuf { i64 0, i64 0, ptr @strbuf_slopbuf }, align 8
@committer_ident_explicitly_given = internal global i32 0, align 4
@author_ident_explicitly_given = internal global i32 0, align 4
@strbuf_slopbuf = external global [0 x i8], align 1
@git_author_email = internal global %struct.strbuf { i64 0, i64 0, ptr @strbuf_slopbuf }, align 8
@git_committer_email = internal global %struct.strbuf { i64 0, i64 0, ptr @strbuf_slopbuf }, align 8
@ident_use_config_only = internal global i32 0, align 4
@git_author_name = internal global %struct.strbuf { i64 0, i64 0, ptr @strbuf_slopbuf }, align 8
@git_committer_name = internal global %struct.strbuf { i64 0, i64 0, ptr @strbuf_slopbuf }, align 8
@.str.16 = private unnamed_addr constant [19 x i8] c"user.useconfigonly\00", align 1
@.str.25 = private unnamed_addr constant [11 x i8] c"./strbuf.h\00", align 1
@.str.26 = private unnamed_addr constant [30 x i8] c"strbuf_setlen() beyond buffer\00", align 1
@.str.32 = private unnamed_addr constant [12 x i8] c"author.name\00", align 1
@.str.33 = private unnamed_addr constant [13 x i8] c"author.email\00", align 1
@.str.34 = private unnamed_addr constant [15 x i8] c"committer.name\00", align 1
@.str.35 = private unnamed_addr constant [16 x i8] c"committer.email\00", align 1
@.str.36 = private unnamed_addr constant [10 x i8] c"user.name\00", align 1
@.str.37 = private unnamed_addr constant [11 x i8] c"user.email\00", align 1

; Function Attrs: inlinehint nounwind uwtable
define internal void @strbuf_addstr(ptr noundef %0, ptr noundef %1) #4 {
  %3 = alloca ptr, align 8
  %4 = alloca ptr, align 8
  store ptr %0, ptr %3, align 8, !tbaa !16
  store ptr %1, ptr %4, align 8, !tbaa !20
  %5 = load ptr, ptr %3, align 8, !tbaa !16
  %6 = load ptr, ptr %4, align 8, !tbaa !20
  %7 = load ptr, ptr %4, align 8, !tbaa !20
  %8 = call i64 @strlen(ptr noundef %7) #12
  call void @strbuf_add(ptr noundef %5, ptr noundef %6, i64 noundef %8)
  ret void
}

; Function Attrs: inlinehint nounwind uwtable
define internal void @strbuf_setlen(ptr noundef %0, i64 noundef %1) #4 {
  %3 = alloca ptr, align 8
  %4 = alloca i64, align 8
  store ptr %0, ptr %3, align 8, !tbaa !16
  store i64 %1, ptr %4, align 8, !tbaa !27
  %5 = load i64, ptr %4, align 8, !tbaa !27
  %6 = load ptr, ptr %3, align 8, !tbaa !16
  %7 = getelementptr inbounds nuw %struct.strbuf, ptr %6, i32 0, i32 0
  %8 = load i64, ptr %7, align 8, !tbaa !28
  %9 = icmp ne i64 %8, 0
  br i1 %9, label %10, label %15

10:                                               ; preds = %2
  %11 = load ptr, ptr %3, align 8, !tbaa !16
  %12 = getelementptr inbounds nuw %struct.strbuf, ptr %11, i32 0, i32 0
  %13 = load i64, ptr %12, align 8, !tbaa !28
  %14 = sub i64 %13, 1
  br label %16

15:                                               ; preds = %2
  br label %16

16:                                               ; preds = %15, %10
  %17 = phi i64 [ %14, %10 ], [ 0, %15 ]
  %18 = icmp ugt i64 %5, %17
  br i1 %18, label %19, label %20

19:                                               ; preds = %16
  call void (ptr, i32, ptr, ...) @BUG_fl(ptr noundef @.str.25, i32 noundef 167, ptr noundef @.str.26) #13
  unreachable

20:                                               ; preds = %16
  %21 = load i64, ptr %4, align 8, !tbaa !27
  %22 = load ptr, ptr %3, align 8, !tbaa !16
  %23 = getelementptr inbounds nuw %struct.strbuf, ptr %22, i32 0, i32 1
  store i64 %21, ptr %23, align 8, !tbaa !8
  %24 = load ptr, ptr %3, align 8, !tbaa !16
  %25 = getelementptr inbounds nuw %struct.strbuf, ptr %24, i32 0, i32 2
  %26 = load ptr, ptr %25, align 8, !tbaa !13
  %27 = icmp ne ptr %26, @strbuf_slopbuf
  br i1 %27, label %28, label %34

28:                                               ; preds = %20
  %29 = load ptr, ptr %3, align 8, !tbaa !16
  %30 = getelementptr inbounds nuw %struct.strbuf, ptr %29, i32 0, i32 2
  %31 = load ptr, ptr %30, align 8, !tbaa !13
  %32 = load i64, ptr %4, align 8, !tbaa !27
  %33 = getelementptr inbounds nuw i8, ptr %31, i64 %32
  store i8 0, ptr %33, align 1, !tbaa !21
  br label %35

34:                                               ; preds = %20
  br label %35

35:                                               ; preds = %34, %28
  ret void
}

; Function Attrs: inlinehint nounwind uwtable
define internal i32 @const_error() #4 {
  ret i32 -1
}

; Function Attrs: nounwind uwtable
define internal i32 @set_ident(ptr noundef %0, ptr noundef %1) #0 {
  %3 = alloca i32, align 4
  %4 = alloca ptr, align 8
  %5 = alloca ptr, align 8
  store ptr %0, ptr %4, align 8, !tbaa !20
  store ptr %1, ptr %5, align 8, !tbaa !20
  %6 = load ptr, ptr %4, align 8, !tbaa !20
  %7 = call i32 @strcmp(ptr noundef %6, ptr noundef @.str.32) #12
  %8 = icmp ne i32 %7, 0
  br i1 %8, label %22, label %9

9:                                                ; preds = %2
  %10 = load ptr, ptr %5, align 8, !tbaa !20
  %11 = icmp ne ptr %10, null
  br i1 %11, label %16, label %12

12:                                               ; preds = %9
  %13 = load ptr, ptr %4, align 8, !tbaa !20
  %14 = call i32 @config_error_nonbool(ptr noundef %13)
  %15 = call i32 @const_error()
  store i32 %15, ptr %3, align 4
  br label %112

16:                                               ; preds = %9
  call void @strbuf_setlen(ptr noundef @git_author_name, i64 noundef 0)
  %17 = load ptr, ptr %5, align 8, !tbaa !20
  call void @strbuf_addstr(ptr noundef @git_author_name, ptr noundef %17)
  %18 = load i32, ptr @author_ident_explicitly_given, align 4, !tbaa !4
  %19 = or i32 %18, 1
  store i32 %19, ptr @author_ident_explicitly_given, align 4, !tbaa !4
  %20 = load i32, ptr @ident_config_given, align 4, !tbaa !4
  %21 = or i32 %20, 1
  store i32 %21, ptr @ident_config_given, align 4, !tbaa !4
  store i32 0, ptr %3, align 4
  br label %112

22:                                               ; preds = %2
  %23 = load ptr, ptr %4, align 8, !tbaa !20
  %24 = call i32 @strcmp(ptr noundef %23, ptr noundef @.str.33) #12
  %25 = icmp ne i32 %24, 0
  br i1 %25, label %39, label %26

26:                                               ; preds = %22
  %27 = load ptr, ptr %5, align 8, !tbaa !20
  %28 = icmp ne ptr %27, null
  br i1 %28, label %33, label %29

29:                                               ; preds = %26
  %30 = load ptr, ptr %4, align 8, !tbaa !20
  %31 = call i32 @config_error_nonbool(ptr noundef %30)
  %32 = call i32 @const_error()
  store i32 %32, ptr %3, align 4
  br label %112

33:                                               ; preds = %26
  call void @strbuf_setlen(ptr noundef @git_author_email, i64 noundef 0)
  %34 = load ptr, ptr %5, align 8, !tbaa !20
  call void @strbuf_addstr(ptr noundef @git_author_email, ptr noundef %34)
  %35 = load i32, ptr @author_ident_explicitly_given, align 4, !tbaa !4
  %36 = or i32 %35, 2
  store i32 %36, ptr @author_ident_explicitly_given, align 4, !tbaa !4
  %37 = load i32, ptr @ident_config_given, align 4, !tbaa !4
  %38 = or i32 %37, 2
  store i32 %38, ptr @ident_config_given, align 4, !tbaa !4
  store i32 0, ptr %3, align 4
  br label %112

39:                                               ; preds = %22
  %40 = load ptr, ptr %4, align 8, !tbaa !20
  %41 = call i32 @strcmp(ptr noundef %40, ptr noundef @.str.34) #12
  %42 = icmp ne i32 %41, 0
  br i1 %42, label %56, label %43

43:                                               ; preds = %39
  %44 = load ptr, ptr %5, align 8, !tbaa !20
  %45 = icmp ne ptr %44, null
  br i1 %45, label %50, label %46

46:                                               ; preds = %43
  %47 = load ptr, ptr %4, align 8, !tbaa !20
  %48 = call i32 @config_error_nonbool(ptr noundef %47)
  %49 = call i32 @const_error()
  store i32 %49, ptr %3, align 4
  br label %112

50:                                               ; preds = %43
  call void @strbuf_setlen(ptr noundef @git_committer_name, i64 noundef 0)
  %51 = load ptr, ptr %5, align 8, !tbaa !20
  call void @strbuf_addstr(ptr noundef @git_committer_name, ptr noundef %51)
  %52 = load i32, ptr @committer_ident_explicitly_given, align 4, !tbaa !4
  %53 = or i32 %52, 1
  store i32 %53, ptr @committer_ident_explicitly_given, align 4, !tbaa !4
  %54 = load i32, ptr @ident_config_given, align 4, !tbaa !4
  %55 = or i32 %54, 1
  store i32 %55, ptr @ident_config_given, align 4, !tbaa !4
  store i32 0, ptr %3, align 4
  br label %112

56:                                               ; preds = %39
  %57 = load ptr, ptr %4, align 8, !tbaa !20
  %58 = call i32 @strcmp(ptr noundef %57, ptr noundef @.str.35) #12
  %59 = icmp ne i32 %58, 0
  br i1 %59, label %73, label %60

60:                                               ; preds = %56
  %61 = load ptr, ptr %5, align 8, !tbaa !20
  %62 = icmp ne ptr %61, null
  br i1 %62, label %67, label %63

63:                                               ; preds = %60
  %64 = load ptr, ptr %4, align 8, !tbaa !20
  %65 = call i32 @config_error_nonbool(ptr noundef %64)
  %66 = call i32 @const_error()
  store i32 %66, ptr %3, align 4
  br label %112

67:                                               ; preds = %60
  call void @strbuf_setlen(ptr noundef @git_committer_email, i64 noundef 0)
  %68 = load ptr, ptr %5, align 8, !tbaa !20
  call void @strbuf_addstr(ptr noundef @git_committer_email, ptr noundef %68)
  %69 = load i32, ptr @committer_ident_explicitly_given, align 4, !tbaa !4
  %70 = or i32 %69, 2
  store i32 %70, ptr @committer_ident_explicitly_given, align 4, !tbaa !4
  %71 = load i32, ptr @ident_config_given, align 4, !tbaa !4
  %72 = or i32 %71, 2
  store i32 %72, ptr @ident_config_given, align 4, !tbaa !4
  store i32 0, ptr %3, align 4
  br label %112

73:                                               ; preds = %56
  %74 = load ptr, ptr %4, align 8, !tbaa !20
  %75 = call i32 @strcmp(ptr noundef %74, ptr noundef @.str.36) #12
  %76 = icmp ne i32 %75, 0
  br i1 %76, label %92, label %77

77:                                               ; preds = %73
  %78 = load ptr, ptr %5, align 8, !tbaa !20
  %79 = icmp ne ptr %78, null
  br i1 %79, label %84, label %80

80:                                               ; preds = %77
  %81 = load ptr, ptr %4, align 8, !tbaa !20
  %82 = call i32 @config_error_nonbool(ptr noundef %81)
  %83 = call i32 @const_error()
  store i32 %83, ptr %3, align 4
  br label %112

84:                                               ; preds = %77
  call void @strbuf_setlen(ptr noundef @git_default_name, i64 noundef 0)
  %85 = load ptr, ptr %5, align 8, !tbaa !20
  call void @strbuf_addstr(ptr noundef @git_default_name, ptr noundef %85)
  %86 = load i32, ptr @committer_ident_explicitly_given, align 4, !tbaa !4
  %87 = or i32 %86, 1
  store i32 %87, ptr @committer_ident_explicitly_given, align 4, !tbaa !4
  %88 = load i32, ptr @author_ident_explicitly_given, align 4, !tbaa !4
  %89 = or i32 %88, 1
  store i32 %89, ptr @author_ident_explicitly_given, align 4, !tbaa !4
  %90 = load i32, ptr @ident_config_given, align 4, !tbaa !4
  %91 = or i32 %90, 1
  store i32 %91, ptr @ident_config_given, align 4, !tbaa !4
  store i32 0, ptr %3, align 4
  br label %112

92:                                               ; preds = %73
  %93 = load ptr, ptr %4, align 8, !tbaa !20
  %94 = call i32 @strcmp(ptr noundef %93, ptr noundef @.str.37) #12
  %95 = icmp ne i32 %94, 0
  br i1 %95, label %111, label %96

96:                                               ; preds = %92
  %97 = load ptr, ptr %5, align 8, !tbaa !20
  %98 = icmp ne ptr %97, null
  br i1 %98, label %103, label %99

99:                                               ; preds = %96
  %100 = load ptr, ptr %4, align 8, !tbaa !20
  %101 = call i32 @config_error_nonbool(ptr noundef %100)
  %102 = call i32 @const_error()
  store i32 %102, ptr %3, align 4
  br label %112

103:                                              ; preds = %96
  call void @strbuf_setlen(ptr noundef @git_default_email, i64 noundef 0)
  %104 = load ptr, ptr %5, align 8, !tbaa !20
  call void @strbuf_addstr(ptr noundef @git_default_email, ptr noundef %104)
  %105 = load i32, ptr @committer_ident_explicitly_given, align 4, !tbaa !4
  %106 = or i32 %105, 2
  store i32 %106, ptr @committer_ident_explicitly_given, align 4, !tbaa !4
  %107 = load i32, ptr @author_ident_explicitly_given, align 4, !tbaa !4
  %108 = or i32 %107, 2
  store i32 %108, ptr @author_ident_explicitly_given, align 4, !tbaa !4
  %109 = load i32, ptr @ident_config_given, align 4, !tbaa !4
  %110 = or i32 %109, 2
  store i32 %110, ptr @ident_config_given, align 4, !tbaa !4
  store i32 0, ptr %3, align 4
  br label %112

111:                                              ; preds = %92
  store i32 0, ptr %3, align 4
  br label %112

112:                                              ; preds = %111, %103, %99, %84, %80, %67, %63, %50, %46, %33, %29, %16, %12
  %113 = load i32, ptr %3, align 4
  ret i32 %113
}

; Function Attrs: nounwind uwtable
define dso_local i32 @git_ident_config(ptr noundef %0, ptr noundef %1, ptr noundef %2, ptr noundef %3) #0 {
  %5 = alloca i32, align 4
  %6 = alloca ptr, align 8
  %7 = alloca ptr, align 8
  %8 = alloca ptr, align 8
  %9 = alloca ptr, align 8
  store ptr %0, ptr %6, align 8, !tbaa !20
  store ptr %1, ptr %7, align 8, !tbaa !20
  store ptr %2, ptr %8, align 8, !tbaa !58
  store ptr %3, ptr %9, align 8, !tbaa !60
  %10 = load ptr, ptr %6, align 8, !tbaa !20
  %11 = call i32 @strcmp(ptr noundef %10, ptr noundef @.str.16) #12
  %12 = icmp ne i32 %11, 0
  br i1 %12, label %17, label %13

13:                                               ; preds = %4
  %14 = load ptr, ptr %6, align 8, !tbaa !20
  %15 = load ptr, ptr %7, align 8, !tbaa !20
  %16 = call i32 @git_config_bool(ptr noundef %14, ptr noundef %15)
  store i32 %16, ptr @ident_use_config_only, align 4, !tbaa !4
  store i32 0, ptr %5, align 4
  br label %21

17:                                               ; preds = %4
  %18 = load ptr, ptr %6, align 8, !tbaa !20
  %19 = load ptr, ptr %7, align 8, !tbaa !20
  %20 = call i32 @set_ident(ptr noundef %18, ptr noundef %19)
  store i32 %20, ptr %5, align 4
  br label %21

21:                                               ; preds = %17, %13
  %22 = load i32, ptr %5, align 4
  ret i32 %22
}