; Function Attrs: nounwind uwtable
define dso_local range(i32 -1, 1) i32 @git_ident_config(ptr noundef %0, ptr noundef %1, ptr noundef readnone captures(none) %2, ptr noundef readnone captures(none) %3) local_unnamed_addr #0 {
  %5 = tail call i32 @strcmp(ptr noundef nonnull dereferenceable(1) %0, ptr noundef nonnull dereferenceable(19) @.str.16) #20
  %.not = icmp eq i32 %5, 0
  br i1 %.not, label %6, label %8

6:                                                ; preds = %4
  %7 = tail call i32 @git_config_bool(ptr noundef nonnull %0, ptr noundef %1) #19
  store i32 %7, ptr @ident_use_config_only, align 4, !tbaa !4
  br label %set_ident.exit

8:                                                ; preds = %4
  %9 = tail call i32 @strcmp(ptr noundef nonnull dereferenceable(1) %0, ptr noundef nonnull dereferenceable(12) @.str.32) #20
  %.not.i = icmp eq i32 %9, 0
  br i1 %.not.i, label %10, label %21

10:                                               ; preds = %8
  %.not25.i = icmp eq ptr %1, null
  br i1 %.not25.i, label %11, label %13

11:                                               ; preds = %10
  %12 = tail call i32 @config_error_nonbool(ptr noundef nonnull %0) #19
  br label %set_ident.exit

13:                                               ; preds = %10
  store i64 0, ptr getelementptr inbounds nuw (i8, ptr @git_author_name, i64 8), align 8, !tbaa !17
  %14 = load ptr, ptr getelementptr inbounds nuw (i8, ptr @git_author_name, i64 16), align 8, !tbaa !18
  %.not9.i.i = icmp eq ptr %14, @strbuf_slopbuf
  br i1 %.not9.i.i, label %strbuf_setlen.exit.i, label %15

15:                                               ; preds = %13
  store i8 0, ptr %14, align 1, !tbaa !13
  br label %strbuf_setlen.exit.i

strbuf_setlen.exit.i:                             ; preds = %15, %13
  %16 = tail call i64 @strlen(ptr noundef nonnull dereferenceable(1) %1) #20
  tail call void @strbuf_add(ptr noundef nonnull @git_author_name, ptr noundef nonnull %1, i64 noundef %16) #19
  %17 = load i32, ptr @author_ident_explicitly_given, align 4, !tbaa !4
  %18 = or i32 %17, 1
  store i32 %18, ptr @author_ident_explicitly_given, align 4, !tbaa !4
  %19 = load i32, ptr @ident_config_given, align 4, !tbaa !4
  %20 = or i32 %19, 1
  store i32 %20, ptr @ident_config_given, align 4, !tbaa !4
  br label %set_ident.exit

21:                                               ; preds = %8
  %22 = tail call i32 @strcmp(ptr noundef nonnull dereferenceable(1) %0, ptr noundef nonnull dereferenceable(13) @.str.33) #20
  %.not26.i = icmp eq i32 %22, 0
  br i1 %.not26.i, label %23, label %34

23:                                               ; preds = %21
  %.not27.i = icmp eq ptr %1, null
  br i1 %.not27.i, label %24, label %26

24:                                               ; preds = %23
  %25 = tail call i32 @config_error_nonbool(ptr noundef nonnull %0) #19
  br label %set_ident.exit

26:                                               ; preds = %23
  store i64 0, ptr getelementptr inbounds nuw (i8, ptr @git_author_email, i64 8), align 8, !tbaa !17
  %27 = load ptr, ptr getelementptr inbounds nuw (i8, ptr @git_author_email, i64 16), align 8, !tbaa !18
  %.not9.i36.i = icmp eq ptr %27, @strbuf_slopbuf
  br i1 %.not9.i36.i, label %strbuf_setlen.exit37.i, label %28

28:                                               ; preds = %26
  store i8 0, ptr %27, align 1, !tbaa !13
  br label %strbuf_setlen.exit37.i

strbuf_setlen.exit37.i:                           ; preds = %28, %26
  %29 = tail call i64 @strlen(ptr noundef nonnull dereferenceable(1) %1) #20
  tail call void @strbuf_add(ptr noundef nonnull @git_author_email, ptr noundef nonnull %1, i64 noundef %29) #19
  %30 = load i32, ptr @author_ident_explicitly_given, align 4, !tbaa !4
  %31 = or i32 %30, 2
  store i32 %31, ptr @author_ident_explicitly_given, align 4, !tbaa !4
  %32 = load i32, ptr @ident_config_given, align 4, !tbaa !4
  %33 = or i32 %32, 2
  store i32 %33, ptr @ident_config_given, align 4, !tbaa !4
  br label %set_ident.exit

34:                                               ; preds = %21
  %35 = tail call i32 @strcmp(ptr noundef nonnull dereferenceable(1) %0, ptr noundef nonnull dereferenceable(15) @.str.34) #20
  %.not28.i = icmp eq i32 %35, 0
  br i1 %.not28.i, label %36, label %47

36:                                               ; preds = %34
  %.not29.i = icmp eq ptr %1, null
  br i1 %.not29.i, label %37, label %39

37:                                               ; preds = %36
  %38 = tail call i32 @config_error_nonbool(ptr noundef nonnull %0) #19
  br label %set_ident.exit

39:                                               ; preds = %36
  store i64 0, ptr getelementptr inbounds nuw (i8, ptr @git_committer_name, i64 8), align 8, !tbaa !17
  %40 = load ptr, ptr getelementptr inbounds nuw (i8, ptr @git_committer_name, i64 16), align 8, !tbaa !18
  %.not9.i38.i = icmp eq ptr %40, @strbuf_slopbuf
  br i1 %.not9.i38.i, label %strbuf_setlen.exit39.i, label %41

41:                                               ; preds = %39
  store i8 0, ptr %40, align 1, !tbaa !13
  br label %strbuf_setlen.exit39.i

strbuf_setlen.exit39.i:                           ; preds = %41, %39
  %42 = tail call i64 @strlen(ptr noundef nonnull dereferenceable(1) %1) #20
  tail call void @strbuf_add(ptr noundef nonnull @git_committer_name, ptr noundef nonnull %1, i64 noundef %42) #19
  %43 = load i32, ptr @committer_ident_explicitly_given, align 4, !tbaa !4
  %44 = or i32 %43, 1
  store i32 %44, ptr @committer_ident_explicitly_given, align 4, !tbaa !4
  %45 = load i32, ptr @ident_config_given, align 4, !tbaa !4
  %46 = or i32 %45, 1
  store i32 %46, ptr @ident_config_given, align 4, !tbaa !4
  br label %set_ident.exit

47:                                               ; preds = %34
  %48 = tail call i32 @strcmp(ptr noundef nonnull dereferenceable(1) %0, ptr noundef nonnull dereferenceable(16) @.str.35) #20
  %.not30.i = icmp eq i32 %48, 0
  br i1 %.not30.i, label %49, label %60

49:                                               ; preds = %47
  %.not31.i = icmp eq ptr %1, null
  br i1 %.not31.i, label %50, label %52

50:                                               ; preds = %49
  %51 = tail call i32 @config_error_nonbool(ptr noundef nonnull %0) #19
  br label %set_ident.exit

52:                                               ; preds = %49
  store i64 0, ptr getelementptr inbounds nuw (i8, ptr @git_committer_email, i64 8), align 8, !tbaa !17
  %53 = load ptr, ptr getelementptr inbounds nuw (i8, ptr @git_committer_email, i64 16), align 8, !tbaa !18
  %.not9.i40.i = icmp eq ptr %53, @strbuf_slopbuf
  br i1 %.not9.i40.i, label %strbuf_setlen.exit41.i, label %54

54:                                               ; preds = %52
  store i8 0, ptr %53, align 1, !tbaa !13
  br label %strbuf_setlen.exit41.i

strbuf_setlen.exit41.i:                           ; preds = %54, %52
  %55 = tail call i64 @strlen(ptr noundef nonnull dereferenceable(1) %1) #20
  tail call void @strbuf_add(ptr noundef nonnull @git_committer_email, ptr noundef nonnull %1, i64 noundef %55) #19
  %56 = load i32, ptr @committer_ident_explicitly_given, align 4, !tbaa !4
  %57 = or i32 %56, 2
  store i32 %57, ptr @committer_ident_explicitly_given, align 4, !tbaa !4
  %58 = load i32, ptr @ident_config_given, align 4, !tbaa !4
  %59 = or i32 %58, 2
  store i32 %59, ptr @ident_config_given, align 4, !tbaa !4
  br label %set_ident.exit

60:                                               ; preds = %47
  %61 = tail call i32 @strcmp(ptr noundef nonnull dereferenceable(1) %0, ptr noundef nonnull dereferenceable(10) @.str.36) #20
  %.not32.i = icmp eq i32 %61, 0
  br i1 %.not32.i, label %62, label %75

62:                                               ; preds = %60
  %.not33.i = icmp eq ptr %1, null
  br i1 %.not33.i, label %63, label %65

63:                                               ; preds = %62
  %64 = tail call i32 @config_error_nonbool(ptr noundef nonnull %0) #19
  br label %set_ident.exit

65:                                               ; preds = %62
  store i64 0, ptr getelementptr inbounds nuw (i8, ptr @git_default_name, i64 8), align 8, !tbaa !17
  %66 = load ptr, ptr getelementptr inbounds nuw (i8, ptr @git_default_name, i64 16), align 8, !tbaa !18
  %.not9.i42.i = icmp eq ptr %66, @strbuf_slopbuf
  br i1 %.not9.i42.i, label %strbuf_setlen.exit43.i, label %67

67:                                               ; preds = %65
  store i8 0, ptr %66, align 1, !tbaa !13
  br label %strbuf_setlen.exit43.i

strbuf_setlen.exit43.i:                           ; preds = %67, %65
  %68 = tail call i64 @strlen(ptr noundef nonnull dereferenceable(1) %1) #20
  tail call void @strbuf_add(ptr noundef nonnull @git_default_name, ptr noundef nonnull %1, i64 noundef %68) #19
  %69 = load i32, ptr @committer_ident_explicitly_given, align 4, !tbaa !4
  %70 = or i32 %69, 1
  store i32 %70, ptr @committer_ident_explicitly_given, align 4, !tbaa !4
  %71 = load i32, ptr @author_ident_explicitly_given, align 4, !tbaa !4
  %72 = or i32 %71, 1
  store i32 %72, ptr @author_ident_explicitly_given, align 4, !tbaa !4
  %73 = load i32, ptr @ident_config_given, align 4, !tbaa !4
  %74 = or i32 %73, 1
  store i32 %74, ptr @ident_config_given, align 4, !tbaa !4
  br label %set_ident.exit

75:                                               ; preds = %60
  %76 = tail call i32 @strcmp(ptr noundef nonnull dereferenceable(1) %0, ptr noundef nonnull dereferenceable(11) @.str.37) #20
  %.not34.i = icmp eq i32 %76, 0
  br i1 %.not34.i, label %77, label %set_ident.exit

77:                                               ; preds = %75
  %.not35.i = icmp eq ptr %1, null
  br i1 %.not35.i, label %78, label %80

78:                                               ; preds = %77
  %79 = tail call i32 @config_error_nonbool(ptr noundef nonnull %0) #19
  br label %set_ident.exit

80:                                               ; preds = %77
  store i64 0, ptr getelementptr inbounds nuw (i8, ptr @git_default_email, i64 8), align 8, !tbaa !17
  %81 = load ptr, ptr getelementptr inbounds nuw (i8, ptr @git_default_email, i64 16), align 8, !tbaa !18
  %.not9.i44.i = icmp eq ptr %81, @strbuf_slopbuf
  br i1 %.not9.i44.i, label %strbuf_setlen.exit45.i, label %82

82:                                               ; preds = %80
  store i8 0, ptr %81, align 1, !tbaa !13
  br label %strbuf_setlen.exit45.i

strbuf_setlen.exit45.i:                           ; preds = %82, %80
  %83 = tail call i64 @strlen(ptr noundef nonnull dereferenceable(1) %1) #20
  tail call void @strbuf_add(ptr noundef nonnull @git_default_email, ptr noundef nonnull %1, i64 noundef %83) #19
  %84 = load i32, ptr @committer_ident_explicitly_given, align 4, !tbaa !4
  %85 = or i32 %84, 2
  store i32 %85, ptr @committer_ident_explicitly_given, align 4, !tbaa !4
  %86 = load i32, ptr @author_ident_explicitly_given, align 4, !tbaa !4
  %87 = or i32 %86, 2
  store i32 %87, ptr @author_ident_explicitly_given, align 4, !tbaa !4
  %88 = load i32, ptr @ident_config_given, align 4, !tbaa !4
  %89 = or i32 %88, 2
  store i32 %89, ptr @ident_config_given, align 4, !tbaa !4
  br label %set_ident.exit

set_ident.exit:                                   ; preds = %strbuf_setlen.exit45.i, %78, %75, %strbuf_setlen.exit43.i, %63, %strbuf_setlen.exit41.i, %50, %strbuf_setlen.exit39.i, %37, %strbuf_setlen.exit37.i, %24, %strbuf_setlen.exit.i, %11, %6
  %.0 = phi i32 [ 0, %6 ], [ 0, %strbuf_setlen.exit45.i ], [ -1, %78 ], [ 0, %strbuf_setlen.exit43.i ], [ -1, %63 ], [ 0, %strbuf_setlen.exit41.i ], [ -1, %50 ], [ 0, %strbuf_setlen.exit39.i ], [ -1, %37 ], [ 0, %strbuf_setlen.exit37.i ], [ -1, %24 ], [ 0, %strbuf_setlen.exit.i ], [ -1, %11 ], [ 0, %75 ]
  ret i32 %.0
}